target datalayout = "e-m:e-p270:32:32-p271:32:32-p272:64:64-i64:64-i128:128-f80:128-n8:16:32:64-S128"
target triple = "x86_64-unknown-linux-gnu"

@.str = private unnamed_addr constant [8 x i8] c"PNP0A03\00", align 1
@.str.1 = private unnamed_addr constant [8 x i8] c"PNP0A08\00", align 1
@acpi_gbl_integer_bit_width = external dso_local local_unnamed_addr global i8, align 1
@acpi_gbl_integer_nybble_width = external dso_local local_unnamed_addr global i8, align 1
@acpi_gbl_integer_byte_width = external dso_local local_unnamed_addr global i8, align 1

; Function Attrs: fn_ret_thunk_extern mustprogress nofree nounwind null_pointer_is_valid willreturn memory(argmem: read)
define dso_local zeroext i8 @acpi_ut_is_pci_root_bridge(ptr nocapture noundef readonly %0) local_unnamed_addr #0 align 16 {
  %2 = tail call i32 @strcmp(ptr noundef %0, ptr noundef nonnull dereferenceable(8) @.str) #8
  %3 = icmp eq i32 %2, 0
  br i1 %3, label %8, label %4

4:                                                ; preds = %1
  %5 = tail call i32 @strcmp(ptr noundef %0, ptr noundef nonnull dereferenceable(8) @.str.1) #8
  %6 = icmp eq i32 %5, 0
  %7 = zext i1 %6 to i8
  br label %8

8:                                                ; preds = %4, %1
  %9 = phi i8 [ 1, %1 ], [ %7, %4 ]
  ret i8 %9
}

; Function Attrs: mustprogress nofree nounwind null_pointer_is_valid willreturn memory(argmem: read)
declare dso_local i32 @strcmp(ptr nocapture noundef, ptr nocapture noundef) local_unnamed_addr #1

; Function Attrs: fn_ret_thunk_extern mustprogress nofree norecurse nosync nounwind null_pointer_is_valid willreturn memory(none)
define dso_local noundef i32 @acpi_ut_dword_byte_swap(i32 noundef %0) local_unnamed_addr #2 align 16 {
  %2 = tail call i32 @llvm.bswap.i32(i32 %0)
  ret i32 %2
}

; Function Attrs: nocallback nofree nosync nounwind willreturn memory(argmem: readwrite)
declare void @llvm.lifetime.start.p0(i64 immarg, ptr nocapture) #3

; Function Attrs: nocallback nofree nosync nounwind willreturn memory(argmem: readwrite)
declare void @llvm.lifetime.end.p0(i64 immarg, ptr nocapture) #3

; Function Attrs: fn_ret_thunk_extern mustprogress nofree norecurse nosync nounwind null_pointer_is_valid willreturn memory(write, argmem: none, inaccessiblemem: none)
define dso_local void @acpi_ut_set_integer_width(i8 noundef zeroext %0) local_unnamed_addr #4 align 16 {
  %2 = icmp ult i8 %0, 2
  %3 = select i1 %2, i8 32, i8 64
  %4 = select i1 %2, i8 8, i8 16
  %5 = select i1 %2, i8 4, i8 8
  store i8 %3, ptr @acpi_gbl_integer_bit_width, align 1
  store i8 %4, ptr @acpi_gbl_integer_nybble_width, align 1
  store i8 %5, ptr @acpi_gbl_integer_byte_width, align 1
  ret void
}

; Function Attrs: fn_ret_thunk_extern nounwind null_pointer_is_valid
define dso_local noundef i32 @acpi_ut_create_update_state_and_push(ptr noundef %0, i16 noundef zeroext %1, ptr noundef %2) local_unnamed_addr #5 align 16 {
  %4 = icmp eq ptr %0, null
  br i1 %4, label %9, label %5

5:                                                ; preds = %3
  %6 = tail call ptr @acpi_ut_create_update_state(ptr noundef nonnull %0, i16 noundef zeroext %1) #8
  %7 = icmp eq ptr %6, null
  br i1 %7, label %9, label %8

8:                                                ; preds = %5
  tail call void @acpi_ut_push_generic_state(ptr noundef %2, ptr noundef nonnull %6) #8
  br label %9

9:                                                ; preds = %8, %5, %3
  %10 = phi i32 [ 0, %8 ], [ 0, %3 ], [ 4, %5 ]
  ret i32 %10
}

; Function Attrs: null_pointer_is_valid
declare dso_local ptr @acpi_ut_create_update_state(ptr noundef, i16 noundef zeroext) local_unnamed_addr #6

; Function Attrs: null_pointer_is_valid
declare dso_local void @acpi_ut_push_generic_state(ptr noundef, ptr noundef) local_unnamed_addr #6

; Function Attrs: fn_ret_thunk_extern nounwind null_pointer_is_valid
define dso_local i32 @acpi_ut_walk_package_tree(ptr noundef %0, ptr noundef %1, ptr nocapture noundef readonly %2, ptr noundef %3) local_unnamed_addr #5 align 16 {
  %5 = alloca ptr, align 8
  call void @llvm.lifetime.start.p0(i64 8, ptr nonnull %5) #8
  store ptr null, ptr %5, align 8
  %6 = tail call ptr @acpi_ut_create_pkg_state(ptr noundef %0, ptr noundef %1, i32 noundef 0) #8
  %7 = icmp eq ptr %6, null
  br i1 %7, label %69, label %8

8:                                                ; preds = %67, %4
  %9 = phi ptr [ %68, %67 ], [ %6, %4 ]
  %10 = getelementptr inbounds i8, ptr %9, i64 16
  %11 = load i32, ptr %10, align 8
  %12 = getelementptr inbounds i8, ptr %9, i64 24
  %13 = load ptr, ptr %12, align 8
  %14 = getelementptr inbounds i8, ptr %13, i64 24
  %15 = load ptr, ptr %14, align 8
  %16 = zext i32 %11 to i64
  %17 = getelementptr ptr, ptr %15, i64 %16
  %18 = load ptr, ptr %17, align 8
  %19 = getelementptr inbounds i8, ptr %9, i64 48
  store ptr %17, ptr %19, align 8
  %20 = icmp eq ptr %18, null
  br i1 %20, label %29, label %21

21:                                               ; preds = %8
  %22 = getelementptr inbounds i8, ptr %18, i64 8
  %23 = load i8, ptr %22, align 8
  %24 = icmp eq i8 %23, 14
  br i1 %24, label %25, label %29

25:                                               ; preds = %21
  %26 = getelementptr inbounds i8, ptr %18, i64 9
  %27 = load i8, ptr %26, align 1
  %28 = icmp eq i8 %27, 4
  br i1 %28, label %53, label %29

29:                                               ; preds = %25, %21, %8
  %30 = call i32 %2(i8 noundef zeroext 0, ptr noundef %18, ptr noundef %9, ptr noundef %3) #8
  %31 = icmp eq i32 %30, 0
  br i1 %31, label %32, label %69

32:                                               ; preds = %29
  %33 = load i32, ptr %10, align 8
  %34 = add i32 %33, 1
  store i32 %34, ptr %10, align 8
  %35 = getelementptr inbounds i8, ptr %9, i64 24
  %36 = load ptr, ptr %35, align 8
  %37 = getelementptr inbounds i8, ptr %36, i64 44
  %38 = load i32, ptr %37, align 4
  %39 = icmp ult i32 %34, %38
  br i1 %39, label %67, label %40

40:                                               ; preds = %44, %32
  %41 = phi ptr [ %42, %44 ], [ %9, %32 ]
  call void @acpi_ut_delete_generic_state(ptr noundef %41) #8
  %42 = call ptr @acpi_ut_pop_generic_state(ptr noundef nonnull %5) #8
  %43 = icmp eq ptr %42, null
  br i1 %43, label %69, label %44

44:                                               ; preds = %40
  %45 = getelementptr inbounds i8, ptr %42, i64 16
  %46 = load i32, ptr %45, align 8
  %47 = add i32 %46, 1
  store i32 %47, ptr %45, align 8
  %48 = getelementptr inbounds i8, ptr %42, i64 24
  %49 = load ptr, ptr %48, align 8
  %50 = getelementptr inbounds i8, ptr %49, i64 44
  %51 = load i32, ptr %50, align 4
  %52 = icmp ult i32 %47, %51
  br i1 %52, label %67, label %40, !llvm.loop !5

53:                                               ; preds = %25
  %54 = call i32 %2(i8 noundef zeroext 1, ptr noundef nonnull %18, ptr noundef %9, ptr noundef %3) #8
  %55 = icmp eq i32 %54, 0
  br i1 %55, label %56, label %69

56:                                               ; preds = %53
  call void @acpi_ut_push_generic_state(ptr noundef nonnull %5, ptr noundef %9) #8
  %57 = load ptr, ptr %19, align 8
  %58 = call ptr @acpi_ut_create_pkg_state(ptr noundef nonnull %18, ptr noundef %57, i32 noundef 0) #8
  %59 = icmp eq ptr %58, null
  br i1 %59, label %60, label %67

60:                                               ; preds = %56
  %61 = load ptr, ptr %5, align 8
  %62 = icmp eq ptr %61, null
  br i1 %62, label %69, label %63

63:                                               ; preds = %63, %60
  %64 = call ptr @acpi_ut_pop_generic_state(ptr noundef nonnull %5) #8
  call void @acpi_ut_delete_generic_state(ptr noundef %64) #8
  %65 = load ptr, ptr %5, align 8
  %66 = icmp eq ptr %65, null
  br i1 %66, label %69, label %63, !llvm.loop !8

67:                                               ; preds = %56, %44, %32
  %68 = phi ptr [ %58, %56 ], [ %9, %32 ], [ %42, %44 ]
  br label %8, !llvm.loop !9

69:                                               ; preds = %63, %60, %53, %40, %29, %4
  %70 = phi i32 [ 4, %4 ], [ 4, %60 ], [ 4, %63 ], [ 0, %40 ], [ %30, %29 ], [ %54, %53 ]
  call void @llvm.lifetime.end.p0(i64 8, ptr nonnull %5) #8
  ret i32 %70
}

; Function Attrs: null_pointer_is_valid
declare dso_local ptr @acpi_ut_create_pkg_state(ptr noundef, ptr noundef, i32 noundef) local_unnamed_addr #6

; Function Attrs: null_pointer_is_valid
declare dso_local void @acpi_ut_delete_generic_state(ptr noundef) local_unnamed_addr #6

; Function Attrs: null_pointer_is_valid
declare dso_local ptr @acpi_ut_pop_generic_state(ptr noundef) local_unnamed_addr #6

; Function Attrs: nocallback nofree nosync nounwind speculatable willreturn memory(none)
declare i32 @llvm.bswap.i32(i32) #7


!llvm.module.flags = !{!0, !1, !2, !3, !4}

!0 = !{i32 1, !"wchar_size", i32 2}
!1 = !{i32 8, !"cf-protection-branch", i32 1}
!2 = !{i32 4, !"function_return_thunk_extern", i32 1}
!3 = !{i32 4, !"indirect_branch_cs_prefix", i32 1}
!4 = !{i32 4, !"SkipRaxSetup", i32 1}
!5 = distinct !{!5, !6, !7}
!6 = !{!"llvm.loop.mustprogress"}
!7 = !{!"llvm.loop.unroll.disable"}
!8 = distinct !{!8, !6, !7}
!9 = distinct !{!9, !6, !7}
