; ModuleID = 'bench/linux/original/utmisc.ll'
source_filename = "bench/linux/original/utmisc.ll"
target datalayout = "e-m:e-p270:32:32-p271:32:32-p272:64:64-i64:64-i128:128-f80:128-n8:16:32:64-S128"
target triple = "x86_64-unknown-linux-gnu"

@.str = private unnamed_addr constant [8 x i8] c"PNP0A03\00", align 1
@.str.1 = private unnamed_addr constant [8 x i8] c"PNP0A08\00", align 1
@acpi_gbl_integer_bit_width = external dso_local local_unnamed_addr global i8, align 1
@acpi_gbl_integer_nybble_width = external dso_local local_unnamed_addr global i8, align 1
@acpi_gbl_integer_byte_width = external dso_local local_unnamed_addr global i8, align 1

; Function Attrs: fn_ret_thunk_extern mustprogress nofree nounwind null_pointer_is_valid willreturn memory(argmem: read)
define dso_local zeroext i8 @acpi_ut_is_pci_root_bridge(ptr nocapture noundef readonly %0) local_unnamed_addr #0 align 16 {
  %2 = tail call i32 @strcmp(ptr noundef %0, ptr noundef nonnull dereferenceable(8) @.str) #8
  %3 = icmp eq i32 %2, 0
  br i1 %3, label %8, label %4

4:                                                ; preds = %1
  %5 = tail call i32 @strcmp(ptr noundef %0, ptr noundef nonnull dereferenceable(8) @.str.1) #8
  %6 = icmp eq i32 %5, 0
  %7 = zext i1 %6 to i8
  br label %8

8:                                                ; preds = %4, %1
  %9 = phi i8 [ 1, %1 ], [ %7, %4 ]
  ret i8 %9
}

; Function Attrs: mustprogress nofree nounwind null_pointer_is_valid willreturn memory(argmem: read)
declare dso_local i32 @strcmp(ptr nocapture noundef, ptr nocapture noundef) local_unnamed_addr #1

; Function Attrs: fn_ret_thunk_extern mustprogress nofree norecurse nosync nounwind null_pointer_is_valid willreturn memory(none)
define dso_local noundef i32 @acpi_ut_dword_byte_swap(i32 noundef %0) local_unnamed_addr #2 align 16 {
  %2 = tail call i32 @llvm.bswap.i32(i32 %0)
  ret i32 %2
}

; Function Attrs: mustprogress nocallback nofree nosync nounwind willreturn memory(argmem: readwrite)
declare void @llvm.lifetime.start.p0(i64 immarg, ptr nocapture) #3

; Function Attrs: mustprogress nocallback nofree nosync nounwind willreturn memory(argmem: readwrite)
declare void @llvm.lifetime.end.p0(i64 immarg, ptr nocapture) #3

; Function Attrs: fn_ret_thunk_extern mustprogress nofree norecurse nosync nounwind null_pointer_is_valid willreturn memory(write, argmem: none, inaccessiblemem: none)
define dso_local void @acpi_ut_set_integer_width(i8 noundef zeroext %0) local_unnamed_addr #4 align 16 {
  %2 = icmp ult i8 %0, 2
  %3 = select i1 %2, i8 32, i8 64
  %4 = select i1 %2, i8 8, i8 16
  %5 = select i1 %2, i8 4, i8 8
  store i8 %3, ptr @acpi_gbl_integer_bit_width, align 1
  store i8 %4, ptr @acpi_gbl_integer_nybble_width, align 1
  store i8 %5, ptr @acpi_gbl_integer_byte_width, align 1
  ret void
}

; Function Attrs: fn_ret_thunk_extern nounwind null_pointer_is_valid
define dso_local noundef i32 @acpi_ut_create_update_state_and_push(ptr noundef %0, i16 noundef zeroext %1, ptr noundef %2) local_unnamed_addr #5 align 16 {
  %4 = icmp eq ptr %0, null
  br i1 %4, label %9, label %5

5:                                                ; preds = %3
  %6 = tail call ptr @acpi_ut_create_update_state(ptr noundef nonnull %0, i16 noundef zeroext %1) #8
  %7 = icmp eq ptr %6, null
  br i1 %7, label %9, label %8

8:                                                ; preds = %5
  tail call void @acpi_ut_push_generic_state(ptr noundef %2, ptr noundef nonnull %6) #8
  br label %9

9:                                                ; preds = %8, %5, %3
  %10 = phi i32 [ 0, %8 ], [ 0, %3 ], [ 4, %5 ]
  ret i32 %10
}

; Function Attrs: null_pointer_is_valid
declare dso_local ptr @acpi_ut_create_update_state(ptr noundef, i16 noundef zeroext) local_unnamed_addr #6

; Function Attrs: null_pointer_is_valid
declare dso_local void @acpi_ut_push_generic_state(ptr noundef, ptr noundef) local_unnamed_addr #6

; Function Attrs: fn_ret_thunk_extern nounwind null_pointer_is_valid
define dso_local i32 @acpi_ut_walk_package_tree(ptr noundef %0, ptr noundef %1, ptr nocapture noundef readonly %2, ptr noundef %3) local_unnamed_addr #5 align 16 {
  %5 = alloca ptr, align 8
  call void @llvm.lifetime.start.p0(i64 8, ptr nonnull %5) #8
  store ptr null, ptr %5, align 8
  %6 = tail call ptr @acpi_ut_create_pkg_state(ptr noundef %0, ptr noundef %1, i32 noundef 0) #8
  %7 = icmp eq ptr %6, null
  br i1 %7, label %.loopexit, label %.preheader9

.preheader9:                                      ; preds = %4, %.loopexit8
  %8 = phi ptr [ %63, %.loopexit8 ], [ %6, %4 ]
  %9 = getelementptr inbounds i8, ptr %8, i64 16
  %10 = load i32, ptr %9, align 8
  %11 = getelementptr inbounds i8, ptr %8, i64 24
  %12 = load ptr, ptr %11, align 8
  %13 = getelementptr inbounds i8, ptr %12, i64 24
  %14 = load ptr, ptr %13, align 8
  %15 = zext i32 %10 to i64
  %16 = getelementptr ptr, ptr %14, i64 %15
  %17 = load ptr, ptr %16, align 8
  %18 = getelementptr inbounds i8, ptr %8, i64 48
  store ptr %16, ptr %18, align 8
  %19 = icmp eq ptr %17, null
  br i1 %19, label %28, label %20

20:                                               ; preds = %.preheader9
  %21 = getelementptr inbounds i8, ptr %17, i64 8
  %22 = load i8, ptr %21, align 8
  %23 = icmp eq i8 %22, 14
  br i1 %23, label %24, label %28

24:                                               ; preds = %20
  %25 = getelementptr inbounds i8, ptr %17, i64 9
  %26 = load i8, ptr %25, align 1
  %27 = icmp eq i8 %26, 4
  br i1 %27, label %50, label %28

28:                                               ; preds = %24, %20, %.preheader9
  %29 = call i32 %2(i8 noundef zeroext 0, ptr noundef %17, ptr noundef %8, ptr noundef %3) #8
  %30 = icmp eq i32 %29, 0
  br i1 %30, label %31, label %.loopexit

31:                                               ; preds = %28
  %32 = load i32, ptr %9, align 8
  %33 = add i32 %32, 1
  store i32 %33, ptr %9, align 8
  %34 = load ptr, ptr %11, align 8
  %35 = getelementptr inbounds i8, ptr %34, i64 44
  %36 = load i32, ptr %35, align 4
  %37 = icmp ult i32 %33, %36
  br i1 %37, label %.loopexit8, label %.preheader6

.preheader6:                                      ; preds = %31, %41
  %38 = phi ptr [ %39, %41 ], [ %8, %31 ]
  call void @acpi_ut_delete_generic_state(ptr noundef %38) #8
  %39 = call ptr @acpi_ut_pop_generic_state(ptr noundef nonnull %5) #8
  %40 = icmp eq ptr %39, null
  br i1 %40, label %.loopexit, label %41

41:                                               ; preds = %.preheader6
  %42 = getelementptr inbounds i8, ptr %39, i64 16
  %43 = load i32, ptr %42, align 8
  %44 = add i32 %43, 1
  store i32 %44, ptr %42, align 8
  %45 = getelementptr inbounds i8, ptr %39, i64 24
  %46 = load ptr, ptr %45, align 8
  %47 = getelementptr inbounds i8, ptr %46, i64 44
  %48 = load i32, ptr %47, align 4
  %49 = icmp ult i32 %44, %48
  br i1 %49, label %.loopexit8, label %.preheader6, !llvm.loop !5

50:                                               ; preds = %24
  %51 = call i32 %2(i8 noundef zeroext 1, ptr noundef nonnull %17, ptr noundef %8, ptr noundef %3) #8
  %52 = icmp eq i32 %51, 0
  br i1 %52, label %53, label %.loopexit

53:                                               ; preds = %50
  call void @acpi_ut_push_generic_state(ptr noundef nonnull %5, ptr noundef %8) #8
  %54 = load ptr, ptr %18, align 8
  %55 = call ptr @acpi_ut_create_pkg_state(ptr noundef nonnull %17, ptr noundef %54, i32 noundef 0) #8
  %56 = icmp eq ptr %55, null
  br i1 %56, label %57, label %.loopexit8

57:                                               ; preds = %53
  %58 = load ptr, ptr %5, align 8
  %59 = icmp eq ptr %58, null
  br i1 %59, label %.loopexit, label %.preheader

.preheader:                                       ; preds = %57, %.preheader
  %60 = call ptr @acpi_ut_pop_generic_state(ptr noundef nonnull %5) #8
  call void @acpi_ut_delete_generic_state(ptr noundef %60) #8
  %61 = load ptr, ptr %5, align 8
  %62 = icmp eq ptr %61, null
  br i1 %62, label %.loopexit, label %.preheader, !llvm.loop !8

.loopexit8:                                       ; preds = %41, %53, %31
  %63 = phi ptr [ %55, %53 ], [ %8, %31 ], [ %39, %41 ]
  br label %.preheader9, !llvm.loop !9

.loopexit:                                        ; preds = %50, %28, %.preheader6, %.preheader, %57, %4
  %64 = phi i32 [ 4, %4 ], [ 4, %57 ], [ 4, %.preheader ], [ 0, %.preheader6 ], [ %51, %50 ], [ %29, %28 ]
  call void @llvm.lifetime.end.p0(i64 8, ptr nonnull %5) #8
  ret i32 %64
}

; Function Attrs: null_pointer_is_valid
declare dso_local ptr @acpi_ut_create_pkg_state(ptr noundef, ptr noundef, i32 noundef) local_unnamed_addr #6

; Function Attrs: null_pointer_is_valid
declare dso_local void @acpi_ut_delete_generic_state(ptr noundef) local_unnamed_addr #6

; Function Attrs: null_pointer_is_valid
declare dso_local ptr @acpi_ut_pop_generic_state(ptr noundef) local_unnamed_addr #6

; Function Attrs: mustprogress nocallback nofree nosync nounwind speculatable willreturn memory(none)
declare i32 @llvm.bswap.i32(i32) #7


!llvm.module.flags = !{!0, !1, !2, !3, !4}

!0 = !{i32 1, !"wchar_size", i32 2}
!1 = !{i32 8, !"cf-protection-branch", i32 1}
!2 = !{i32 4, !"function_return_thunk_extern", i32 1}
!3 = !{i32 4, !"indirect_branch_cs_prefix", i32 1}
!4 = !{i32 4, !"SkipRaxSetup", i32 1}
!5 = distinct !{!5, !6, !7}
!6 = !{!"llvm.loop.mustprogress"}
!7 = !{!"llvm.loop.unroll.disable"}
!8 = distinct !{!8, !6, !7}
!9 = distinct !{!9, !6, !7}
